target datalayout = "e-m:e-p270:32:32-p271:32:32-p272:64:64-i64:64-i128:128-f80:128-n8:16:32:64-S128"
target triple = "x86_64-unknown-linux-gnu"

%"struct.llvh::fltSemantics" = type { i16, i16, i32, i32 }
%"class.llvh::detail::IEEEFloat" = type <{ ptr, %"union.llvh::detail::IEEEFloat::Significand", i16, i8, [5 x i8] }>
%"union.llvh::detail::IEEEFloat::Significand" = type { i64 }

; Function Attrs: mustprogress nounwind uwtable
define internal noundef i32 @_ZN4llvhL16partCountForBitsEj(i32 noundef %bits) #1 {
entry:
  %bits.addr = alloca i32, align 4
  store i32 %bits, ptr %bits.addr, align 4
  %0 = load i32, ptr %bits.addr, align 4
  %add = add i32 %0, 64
  %sub = sub i32 %add, 1
  %div = udiv i32 %sub, 64
  ret i32 %div
}

; Function Attrs: mustprogress nounwind uwtable
define hidden noundef i32 @_ZNK4llvh6detail9IEEEFloat9partCountEv(ptr noundef nonnull align 8 dereferenceable(24) %this) #1 align 2 {
entry:
  %this.addr = alloca ptr, align 8
  store ptr %this, ptr %this.addr, align 8
  %this1 = load ptr, ptr %this.addr, align 8
  %semantics = getelementptr inbounds %"class.llvh::detail::IEEEFloat", ptr %this1, i32 0, i32 0
  %0 = load ptr, ptr %semantics, align 8
  %precision = getelementptr inbounds %"struct.llvh::fltSemantics", ptr %0, i32 0, i32 2
  %1 = load i32, ptr %precision, align 4
  %add = add i32 %1, 1
  %call = call noundef i32 @_ZN4llvhL16partCountForBitsEj(i32 noundef %add)
  ret i32 %call
}

; Function Attrs: mustprogress nounwind uwtable
define hidden noundef ptr @_ZNK4llvh6detail9IEEEFloat16significandPartsEv(ptr noundef nonnull align 8 dereferenceable(24) %this) #1 align 2 {
entry:
  %this.addr = alloca ptr, align 8
  store ptr %this, ptr %this.addr, align 8
  %this1 = load ptr, ptr %this.addr, align 8
  %call = call noundef ptr @_ZN4llvh6detail9IEEEFloat16significandPartsEv(ptr noundef nonnull align 8 dereferenceable(24) %this1)
  ret ptr %call
}

; Function Attrs: mustprogress nounwind uwtable
define hidden noundef ptr @_ZN4llvh6detail9IEEEFloat16significandPartsEv(ptr noundef nonnull align 8 dereferenceable(24) %this) #1 align 2 {
entry:
  %retval = alloca ptr, align 8
  %this.addr = alloca ptr, align 8
  store ptr %this, ptr %this.addr, align 8
  %this1 = load ptr, ptr %this.addr, align 8
  %call = call noundef i32 @_ZNK4llvh6detail9IEEEFloat9partCountEv(ptr noundef nonnull align 8 dereferenceable(24) %this1)
  %cmp = icmp ugt i32 %call, 1
  br i1 %cmp, label %if.then, label %if.else

if.then:                                          ; preds = %entry
  %significand = getelementptr inbounds %"class.llvh::detail::IEEEFloat", ptr %this1, i32 0, i32 1
  %0 = load ptr, ptr %significand, align 8
  store ptr %0, ptr %retval, align 8
  br label %return

if.else:                                          ; preds = %entry
  %significand2 = getelementptr inbounds %"class.llvh::detail::IEEEFloat", ptr %this1, i32 0, i32 1
  store ptr %significand2, ptr %retval, align 8
  br label %return

return:                                           ; preds = %if.else, %if.then
  %1 = load ptr, ptr %retval, align 8
  ret ptr %1
}

; Function Attrs: mustprogress nounwind uwtable
define hidden noundef i32 @_ZN4llvh6detail9IEEEFloat17divideSignificandERKS1_(ptr noundef nonnull align 8 dereferenceable(24) %this, ptr noundef nonnull align 8 dereferenceable(24) %rhs) #1 align 2 {
entry:
  %this.addr = alloca ptr, align 8
  %rhs.addr = alloca ptr, align 8
  %bit = alloca i32, align 4
  %i = alloca i32, align 4
  %partsCount = alloca i32, align 4
  %rhsSignificand = alloca ptr, align 8
  %lhsSignificand = alloca ptr, align 8
  %dividend = alloca ptr, align 8
  %divisor = alloca ptr, align 8
  %scratch = alloca [4 x i64], align 16
  %lost_fraction = alloca i32, align 4
  %precision = alloca i32, align 4
  %cmp54 = alloca i32, align 4
  store ptr %this, ptr %this.addr, align 8
  store ptr %rhs, ptr %rhs.addr, align 8
  %this1 = load ptr, ptr %this.addr, align 8
  %call = call noundef ptr @_ZN4llvh6detail9IEEEFloat16significandPartsEv(ptr noundef nonnull align 8 dereferenceable(24) %this1)
  store ptr %call, ptr %lhsSignificand, align 8
  %0 = load ptr, ptr %rhs.addr, align 8
  %call2 = call noundef ptr @_ZNK4llvh6detail9IEEEFloat16significandPartsEv(ptr noundef nonnull align 8 dereferenceable(24) %0)
  store ptr %call2, ptr %rhsSignificand, align 8
  %call3 = call noundef i32 @_ZNK4llvh6detail9IEEEFloat9partCountEv(ptr noundef nonnull align 8 dereferenceable(24) %this1)
  store i32 %call3, ptr %partsCount, align 4
  %1 = load i32, ptr %partsCount, align 4
  %cmp = icmp ugt i32 %1, 2
  br i1 %cmp, label %if.then, label %if.else

if.then:                                          ; preds = %entry
  %2 = load i32, ptr %partsCount, align 4
  %mul = mul i32 %2, 2
  %conv = zext i32 %mul to i64
  %3 = call { i64, i1 } @llvm.umul.with.overflow.i64(i64 %conv, i64 8)
  %4 = extractvalue { i64, i1 } %3, 1
  %5 = extractvalue { i64, i1 } %3, 0
  %6 = select i1 %4, i64 -1, i64 %5
  %call4 = call noalias noundef nonnull ptr @_Znam(i64 noundef %6) #13
  store ptr %call4, ptr %dividend, align 8
  br label %if.end

if.else:                                          ; preds = %entry
  %arraydecay = getelementptr inbounds [4 x i64], ptr %scratch, i64 0, i64 0
  store ptr %arraydecay, ptr %dividend, align 8
  br label %if.end

if.end:                                           ; preds = %if.else, %if.then
  %7 = load ptr, ptr %dividend, align 8
  %8 = load i32, ptr %partsCount, align 4
  %idx.ext = zext i32 %8 to i64
  %add.ptr = getelementptr inbounds i64, ptr %7, i64 %idx.ext
  store ptr %add.ptr, ptr %divisor, align 8
  store i32 0, ptr %i, align 4
  br label %for.cond

for.cond:                                         ; preds = %for.inc, %if.end
  %9 = load i32, ptr %i, align 4
  %10 = load i32, ptr %partsCount, align 4
  %cmp5 = icmp ult i32 %9, %10
  br i1 %cmp5, label %for.body, label %for.end

for.body:                                         ; preds = %for.cond
  %11 = load ptr, ptr %lhsSignificand, align 8
  %12 = load i32, ptr %i, align 4
  %idxprom = zext i32 %12 to i64
  %arrayidx = getelementptr inbounds i64, ptr %11, i64 %idxprom
  %13 = load i64, ptr %arrayidx, align 8
  %14 = load ptr, ptr %dividend, align 8
  %15 = load i32, ptr %i, align 4
  %idxprom6 = zext i32 %15 to i64
  %arrayidx7 = getelementptr inbounds i64, ptr %14, i64 %idxprom6
  store i64 %13, ptr %arrayidx7, align 8
  %16 = load ptr, ptr %rhsSignificand, align 8
  %17 = load i32, ptr %i, align 4
  %idxprom8 = zext i32 %17 to i64
  %arrayidx9 = getelementptr inbounds i64, ptr %16, i64 %idxprom8
  %18 = load i64, ptr %arrayidx9, align 8
  %19 = load ptr, ptr %divisor, align 8
  %20 = load i32, ptr %i, align 4
  %idxprom10 = zext i32 %20 to i64
  %arrayidx11 = getelementptr inbounds i64, ptr %19, i64 %idxprom10
  store i64 %18, ptr %arrayidx11, align 8
  %21 = load ptr, ptr %lhsSignificand, align 8
  %22 = load i32, ptr %i, align 4
  %idxprom12 = zext i32 %22 to i64
  %arrayidx13 = getelementptr inbounds i64, ptr %21, i64 %idxprom12
  store i64 0, ptr %arrayidx13, align 8
  br label %for.inc

for.inc:                                          ; preds = %for.body
  %23 = load i32, ptr %i, align 4
  %inc = add i32 %23, 1
  store i32 %inc, ptr %i, align 4
  br label %for.cond, !llvm.loop !8

for.end:                                          ; preds = %for.cond
  %24 = load ptr, ptr %rhs.addr, align 8
  %exponent = getelementptr inbounds %"class.llvh::detail::IEEEFloat", ptr %24, i32 0, i32 2
  %25 = load i16, ptr %exponent, align 8
  %conv14 = sext i16 %25 to i32
  %exponent15 = getelementptr inbounds %"class.llvh::detail::IEEEFloat", ptr %this1, i32 0, i32 2
  %26 = load i16, ptr %exponent15, align 8
  %conv16 = sext i16 %26 to i32
  %sub = sub nsw i32 %conv16, %conv14
  %conv17 = trunc i32 %sub to i16
  store i16 %conv17, ptr %exponent15, align 8
  %semantics = getelementptr inbounds %"class.llvh::detail::IEEEFloat", ptr %this1, i32 0, i32 0
  %27 = load ptr, ptr %semantics, align 8
  %precision18 = getelementptr inbounds %"struct.llvh::fltSemantics", ptr %27, i32 0, i32 2
  %28 = load i32, ptr %precision18, align 4
  store i32 %28, ptr %precision, align 4
  %29 = load i32, ptr %precision, align 4
  %30 = load ptr, ptr %divisor, align 8
  %31 = load i32, ptr %partsCount, align 4
  %call19 = call noundef i32 @_ZN4llvh5APInt5tcMSBEPKmj(ptr noundef %30, i32 noundef %31)
  %sub20 = sub i32 %29, %call19
  %sub21 = sub i32 %sub20, 1
  store i32 %sub21, ptr %bit, align 4
  %32 = load i32, ptr %bit, align 4
  %tobool = icmp ne i32 %32, 0
  br i1 %tobool, label %if.then22, label %if.end26

if.then22:                                        ; preds = %for.end
  %33 = load i32, ptr %bit, align 4
  %exponent23 = getelementptr inbounds %"class.llvh::detail::IEEEFloat", ptr %this1, i32 0, i32 2
  %34 = load i16, ptr %exponent23, align 8
  %conv24 = sext i16 %34 to i32
  %add = add i32 %conv24, %33
  %conv25 = trunc i32 %add to i16
  store i16 %conv25, ptr %exponent23, align 8
  %35 = load ptr, ptr %divisor, align 8
  %36 = load i32, ptr %partsCount, align 4
  %37 = load i32, ptr %bit, align 4
  call void @_ZN4llvh5APInt11tcShiftLeftEPmjj(ptr noundef %35, i32 noundef %36, i32 noundef %37)
  br label %if.end26

if.end26:                                         ; preds = %if.then22, %for.end
  %38 = load i32, ptr %precision, align 4
  %39 = load ptr, ptr %dividend, align 8
  %40 = load i32, ptr %partsCount, align 4
  %call27 = call noundef i32 @_ZN4llvh5APInt5tcMSBEPKmj(ptr noundef %39, i32 noundef %40)
  %sub28 = sub i32 %38, %call27
  %sub29 = sub i32 %sub28, 1
  store i32 %sub29, ptr %bit, align 4
  %41 = load i32, ptr %bit, align 4
  %tobool30 = icmp ne i32 %41, 0
  br i1 %tobool30, label %if.then31, label %if.end36

if.then31:                                        ; preds = %if.end26
  %42 = load i32, ptr %bit, align 4
  %exponent32 = getelementptr inbounds %"class.llvh::detail::IEEEFloat", ptr %this1, i32 0, i32 2
  %43 = load i16, ptr %exponent32, align 8
  %conv33 = sext i16 %43 to i32
  %sub34 = sub i32 %conv33, %42
  %conv35 = trunc i32 %sub34 to i16
  store i16 %conv35, ptr %exponent32, align 8
  %44 = load ptr, ptr %dividend, align 8
  %45 = load i32, ptr %partsCount, align 4
  %46 = load i32, ptr %bit, align 4
  call void @_ZN4llvh5APInt11tcShiftLeftEPmjj(ptr noundef %44, i32 noundef %45, i32 noundef %46)
  br label %if.end36

if.end36:                                         ; preds = %if.then31, %if.end26
  %47 = load ptr, ptr %dividend, align 8
  %48 = load ptr, ptr %divisor, align 8
  %49 = load i32, ptr %partsCount, align 4
  %call37 = call noundef i32 @_ZN4llvh5APInt9tcCompareEPKmS2_j(ptr noundef %47, ptr noundef %48, i32 noundef %49)
  %cmp38 = icmp slt i32 %call37, 0
  br i1 %cmp38, label %if.then39, label %if.end41

if.then39:                                        ; preds = %if.end36
  %exponent40 = getelementptr inbounds %"class.llvh::detail::IEEEFloat", ptr %this1, i32 0, i32 2
  %50 = load i16, ptr %exponent40, align 8
  %dec = add i16 %50, -1
  store i16 %dec, ptr %exponent40, align 8
  %51 = load ptr, ptr %dividend, align 8
  %52 = load i32, ptr %partsCount, align 4
  call void @_ZN4llvh5APInt11tcShiftLeftEPmjj(ptr noundef %51, i32 noundef %52, i32 noundef 1)
  br label %if.end41

if.end41:                                         ; preds = %if.then39, %if.end36
  %53 = load i32, ptr %precision, align 4
  store i32 %53, ptr %bit, align 4
  br label %for.cond42

for.cond42:                                       ; preds = %for.inc51, %if.end41
  %54 = load i32, ptr %bit, align 4
  %tobool43 = icmp ne i32 %54, 0
  br i1 %tobool43, label %for.body44, label %for.end53

for.body44:                                       ; preds = %for.cond42
  %55 = load ptr, ptr %dividend, align 8
  %56 = load ptr, ptr %divisor, align 8
  %57 = load i32, ptr %partsCount, align 4
  %call45 = call noundef i32 @_ZN4llvh5APInt9tcCompareEPKmS2_j(ptr noundef %55, ptr noundef %56, i32 noundef %57)
  %cmp46 = icmp sge i32 %call45, 0
  br i1 %cmp46, label %if.then47, label %if.end50

if.then47:                                        ; preds = %for.body44
  %58 = load ptr, ptr %dividend, align 8
  %59 = load ptr, ptr %divisor, align 8
  %60 = load i32, ptr %partsCount, align 4
  %call48 = call noundef i64 @_ZN4llvh5APInt10tcSubtractEPmPKmmj(ptr noundef %58, ptr noundef %59, i64 noundef 0, i32 noundef %60)
  %61 = load ptr, ptr %lhsSignificand, align 8
  %62 = load i32, ptr %bit, align 4
  %sub49 = sub i32 %62, 1
  call void @_ZN4llvh5APInt8tcSetBitEPmj(ptr noundef %61, i32 noundef %sub49)
  br label %if.end50

if.end50:                                         ; preds = %if.then47, %for.body44
  %63 = load ptr, ptr %dividend, align 8
  %64 = load i32, ptr %partsCount, align 4
  call void @_ZN4llvh5APInt11tcShiftLeftEPmjj(ptr noundef %63, i32 noundef %64, i32 noundef 1)
  br label %for.inc51

for.inc51:                                        ; preds = %if.end50
  %65 = load i32, ptr %bit, align 4
  %sub52 = sub i32 %65, 1
  store i32 %sub52, ptr %bit, align 4
  br label %for.cond42, !llvm.loop !9

for.end53:                                        ; preds = %for.cond42
  %66 = load ptr, ptr %dividend, align 8
  %67 = load ptr, ptr %divisor, align 8
  %68 = load i32, ptr %partsCount, align 4
  %call55 = call noundef i32 @_ZN4llvh5APInt9tcCompareEPKmS2_j(ptr noundef %66, ptr noundef %67, i32 noundef %68)
  store i32 %call55, ptr %cmp54, align 4
  %69 = load i32, ptr %cmp54, align 4
  %cmp56 = icmp sgt i32 %69, 0
  br i1 %cmp56, label %if.then57, label %if.else58

if.then57:                                        ; preds = %for.end53
  store i32 3, ptr %lost_fraction, align 4
  br label %if.end67

if.else58:                                        ; preds = %for.end53
  %70 = load i32, ptr %cmp54, align 4
  %cmp59 = icmp eq i32 %70, 0
  br i1 %cmp59, label %if.then60, label %if.else61

if.then60:                                        ; preds = %if.else58
  store i32 2, ptr %lost_fraction, align 4
  br label %if.end66

if.else61:                                        ; preds = %if.else58
  %71 = load ptr, ptr %dividend, align 8
  %72 = load i32, ptr %partsCount, align 4
  %call62 = call noundef zeroext i1 @_ZN4llvh5APInt8tcIsZeroEPKmj(ptr noundef %71, i32 noundef %72)
  br i1 %call62, label %if.then63, label %if.else64

if.then63:                                        ; preds = %if.else61
  store i32 0, ptr %lost_fraction, align 4
  br label %if.end65

if.else64:                                        ; preds = %if.else61
  store i32 1, ptr %lost_fraction, align 4
  br label %if.end65

if.end65:                                         ; preds = %if.else64, %if.then63
  br label %if.end66

if.end66:                                         ; preds = %if.end65, %if.then60
  br label %if.end67

if.end67:                                         ; preds = %if.end66, %if.then57
  %73 = load i32, ptr %partsCount, align 4
  %cmp68 = icmp ugt i32 %73, 2
  br i1 %cmp68, label %if.then69, label %if.end70

if.then69:                                        ; preds = %if.end67
  %74 = load ptr, ptr %dividend, align 8
  %isnull = icmp eq ptr %74, null
  br i1 %isnull, label %delete.end, label %delete.notnull

delete.notnull:                                   ; preds = %if.then69
  call void @_ZdaPv(ptr noundef %74) #14
  br label %delete.end

delete.end:                                       ; preds = %delete.notnull, %if.then69
  br label %if.end70

if.end70:                                         ; preds = %delete.end, %if.end67
  %75 = load i32, ptr %lost_fraction, align 4
  ret i32 %75
}