; Function Attrs: mustprogress nounwind uwtable
define hidden noundef range(i32 0, 4) i32 @_ZN4llvh6detail9IEEEFloat17divideSignificandERKS1_(ptr noundef nonnull align 8 dereferenceable(24) %this, ptr noundef nonnull readonly align 8 captures(none) dereferenceable(24) %rhs) local_unnamed_addr #2 align 2 {
entry:
  %scratch = alloca [4 x i64], align 16
  %0 = load ptr, ptr %this, align 8
  %precision.i.i = getelementptr inbounds nuw i8, ptr %0, i64 4
  %1 = load i32, ptr %precision.i.i, align 4
  %2 = add i32 %1, -64
  %cmp.i = icmp ult i32 %2, -128
  %significand.i = getelementptr inbounds nuw i8, ptr %this, i64 8
  %3 = load ptr, ptr %significand.i, align 8
  %retval.0.i = select i1 %cmp.i, ptr %3, ptr %significand.i
  %4 = load ptr, ptr %rhs, align 8
  %precision.i.i.i = getelementptr inbounds nuw i8, ptr %4, i64 4
  %5 = load i32, ptr %precision.i.i.i, align 4
  %6 = add i32 %5, -64
  %cmp.i.i = icmp ult i32 %6, -128
  %significand.i.i = getelementptr inbounds nuw i8, ptr %rhs, i64 8
  %7 = load ptr, ptr %significand.i.i, align 8
  %retval.0.i.i = select i1 %cmp.i.i, ptr %7, ptr %significand.i.i
  %sub.i.i = add i32 %1, 64
  %div1.i.i = lshr i32 %sub.i.i, 6
  %cmp = icmp ugt i32 %sub.i.i, 191
  br i1 %cmp, label %if.end.thread, label %if.end

if.end.thread:                                    ; preds = %entry
  %mul = shl nuw nsw i32 %div1.i.i, 4
  %8 = zext nneg i32 %mul to i64
  %call4 = tail call noalias noundef nonnull ptr @_Znam(i64 noundef %8) #24
  %idx.ext60 = zext nneg i32 %div1.i.i to i64
  %add.ptr61 = getelementptr inbounds nuw i64, ptr %call4, i64 %idx.ext60
  br label %for.body.preheader

if.end:                                           ; preds = %entry
  %idx.ext = zext nneg i32 %div1.i.i to i64
  %add.ptr = getelementptr inbounds nuw i64, ptr %scratch, i64 %idx.ext
  %cmp553.not = icmp ugt i32 %1, -65
  br i1 %cmp553.not, label %for.end, label %for.body.preheader

for.body.preheader:                               ; preds = %if.end.thread, %if.end
  %add.ptr66 = phi ptr [ %add.ptr61, %if.end.thread ], [ %add.ptr, %if.end ]
  %idx.ext65 = phi i64 [ %idx.ext60, %if.end.thread ], [ %idx.ext, %if.end ]
  %dividend.063 = phi ptr [ %call4, %if.end.thread ], [ %scratch, %if.end ]
  br label %for.body

for.body:                                         ; preds = %for.body.preheader, %for.body
  %indvars.iv = phi i64 [ 0, %for.body.preheader ], [ %indvars.iv.next, %for.body ]
  %arrayidx = getelementptr inbounds nuw i64, ptr %retval.0.i, i64 %indvars.iv
  %9 = load i64, ptr %arrayidx, align 8
  %arrayidx7 = getelementptr inbounds nuw i64, ptr %dividend.063, i64 %indvars.iv
  store i64 %9, ptr %arrayidx7, align 8
  %arrayidx9 = getelementptr inbounds nuw i64, ptr %retval.0.i.i, i64 %indvars.iv
  %10 = load i64, ptr %arrayidx9, align 8
  %arrayidx11 = getelementptr inbounds nuw i64, ptr %add.ptr66, i64 %indvars.iv
  store i64 %10, ptr %arrayidx11, align 8
  store i64 0, ptr %arrayidx, align 8
  %indvars.iv.next = add nuw nsw i64 %indvars.iv, 1
  %exitcond.not = icmp eq i64 %indvars.iv.next, %idx.ext65
  br i1 %exitcond.not, label %for.end.loopexit, label %for.body, !llvm.loop !8

for.end.loopexit:                                 ; preds = %for.body
  %.pre = load ptr, ptr %this, align 8
  br label %for.end

for.end:                                          ; preds = %for.end.loopexit, %if.end
  %add.ptr67 = phi ptr [ %add.ptr66, %for.end.loopexit ], [ %add.ptr, %if.end ]
  %dividend.064 = phi ptr [ %dividend.063, %for.end.loopexit ], [ %scratch, %if.end ]
  %11 = phi ptr [ %.pre, %for.end.loopexit ], [ %0, %if.end ]
  %exponent = getelementptr inbounds nuw i8, ptr %rhs, i64 16
  %12 = load i16, ptr %exponent, align 8
  %exponent15 = getelementptr inbounds nuw i8, ptr %this, i64 16
  %13 = load i16, ptr %exponent15, align 8
  %sub = sub i16 %13, %12
  store i16 %sub, ptr %exponent15, align 8
  %precision18 = getelementptr inbounds nuw i8, ptr %11, i64 4
  %14 = load i32, ptr %precision18, align 4
  %call19 = call noundef i32 @_ZN4llvh5APInt5tcMSBEPKmj(ptr noundef nonnull %add.ptr67, i32 noundef %div1.i.i) #26
  %15 = xor i32 %call19, -1
  %sub21 = add i32 %14, %15
  %tobool.not = icmp eq i32 %sub21, 0
  br i1 %tobool.not, label %if.end26, label %if.then22

if.then22:                                        ; preds = %for.end
  %16 = load i16, ptr %exponent15, align 8
  %17 = trunc i32 %sub21 to i16
  %conv25 = add i16 %16, %17
  store i16 %conv25, ptr %exponent15, align 8
  call void @_ZN4llvh5APInt11tcShiftLeftEPmjj(ptr noundef nonnull %add.ptr67, i32 noundef %div1.i.i, i32 noundef %sub21) #26
  br label %if.end26

if.end26:                                         ; preds = %if.then22, %for.end
  %call27 = call noundef i32 @_ZN4llvh5APInt5tcMSBEPKmj(ptr noundef nonnull %dividend.064, i32 noundef %div1.i.i) #26
  %18 = xor i32 %call27, -1
  %sub29 = add i32 %14, %18
  %tobool30.not = icmp eq i32 %sub29, 0
  br i1 %tobool30.not, label %if.end36, label %if.then31

if.then31:                                        ; preds = %if.end26
  %19 = load i16, ptr %exponent15, align 8
  %20 = trunc i32 %sub29 to i16
  %conv35 = sub i16 %19, %20
  store i16 %conv35, ptr %exponent15, align 8
  call void @_ZN4llvh5APInt11tcShiftLeftEPmjj(ptr noundef nonnull %dividend.064, i32 noundef %div1.i.i, i32 noundef %sub29) #26
  br label %if.end36

if.end36:                                         ; preds = %if.then31, %if.end26
  %call37 = call noundef i32 @_ZN4llvh5APInt9tcCompareEPKmS2_j(ptr noundef nonnull %dividend.064, ptr noundef nonnull %add.ptr67, i32 noundef %div1.i.i) #26
  %cmp38 = icmp slt i32 %call37, 0
  br i1 %cmp38, label %if.then39, label %if.end41

if.then39:                                        ; preds = %if.end36
  %21 = load i16, ptr %exponent15, align 8
  %dec = add i16 %21, -1
  store i16 %dec, ptr %exponent15, align 8
  call void @_ZN4llvh5APInt11tcShiftLeftEPmjj(ptr noundef nonnull %dividend.064, i32 noundef %div1.i.i, i32 noundef 1) #26
  br label %if.end41

if.end41:                                         ; preds = %if.then39, %if.end36
  %tobool43.not55 = icmp eq i32 %14, 0
  br i1 %tobool43.not55, label %for.end53, label %for.body44

for.body44:                                       ; preds = %if.end41, %if.end50
  %bit.056 = phi i32 [ %sub52.pre-phi, %if.end50 ], [ %14, %if.end41 ]
  %call45 = call noundef i32 @_ZN4llvh5APInt9tcCompareEPKmS2_j(ptr noundef nonnull %dividend.064, ptr noundef nonnull %add.ptr67, i32 noundef %div1.i.i) #26
  %cmp46 = icmp sgt i32 %call45, -1
  br i1 %cmp46, label %if.then47, label %for.body44.if.end50_crit_edge

for.body44.if.end50_crit_edge:                    ; preds = %for.body44
  %.pre58 = add i32 %bit.056, -1
  br label %if.end50

if.then47:                                        ; preds = %for.body44
  %call48 = call noundef i64 @_ZN4llvh5APInt10tcSubtractEPmPKmmj(ptr noundef nonnull %dividend.064, ptr noundef nonnull %add.ptr67, i64 noundef 0, i32 noundef %div1.i.i) #26
  %sub49 = add i32 %bit.056, -1
  call void @_ZN4llvh5APInt8tcSetBitEPmj(ptr noundef %retval.0.i, i32 noundef %sub49) #26
  br label %if.end50

if.end50:                                         ; preds = %for.body44.if.end50_crit_edge, %if.then47
  %sub52.pre-phi = phi i32 [ %.pre58, %for.body44.if.end50_crit_edge ], [ %sub49, %if.then47 ]
  call void @_ZN4llvh5APInt11tcShiftLeftEPmjj(ptr noundef nonnull %dividend.064, i32 noundef %div1.i.i, i32 noundef 1) #26
  %tobool43.not = icmp eq i32 %sub52.pre-phi, 0
  br i1 %tobool43.not, label %for.end53, label %for.body44, !llvm.loop !9

for.end53:                                        ; preds = %if.end50, %if.end41
  %call55 = call noundef i32 @_ZN4llvh5APInt9tcCompareEPKmS2_j(ptr noundef nonnull %dividend.064, ptr noundef nonnull %add.ptr67, i32 noundef %div1.i.i) #26
  %cmp56 = icmp sgt i32 %call55, 0
  br i1 %cmp56, label %if.end67, label %if.else58

if.else58:                                        ; preds = %for.end53
  %cmp59 = icmp eq i32 %call55, 0
  br i1 %cmp59, label %if.end67, label %if.else61

if.else61:                                        ; preds = %if.else58
  %call62 = call noundef zeroext i1 @_ZN4llvh5APInt8tcIsZeroEPKmj(ptr noundef nonnull %dividend.064, i32 noundef %div1.i.i) #26
  %not.call62 = xor i1 %call62, true
  %. = zext i1 %not.call62 to i32
  br label %if.end67

if.end67:                                         ; preds = %if.else61, %if.else58, %for.end53
  %lost_fraction.0 = phi i32 [ 3, %for.end53 ], [ 2, %if.else58 ], [ %., %if.else61 ]
  br i1 %cmp, label %delete.notnull, label %if.end70

delete.notnull:                                   ; preds = %if.end67
  call void @_ZdaPv(ptr noundef nonnull %dividend.064) #25
  br label %if.end70

if.end70:                                         ; preds = %delete.notnull, %if.end67
  ret i32 %lost_fraction.0
}